target datalayout = "e-m:e-p270:32:32-p271:32:32-p272:64:64-i64:64-i128:128-f80:128-n8:16:32:64-S128"
target triple = "x86_64-pc-linux-gnu"

%struct.lean_object = type { i32, i32 }

; Function Attrs: alwaysinline nounwind uwtable
define internal void @lean_dec_ref(ptr noundef %0) #1 {
  %2 = alloca ptr, align 8
  store ptr %0, ptr %2, align 8, !tbaa !4
  %3 = load ptr, ptr %2, align 8, !tbaa !4
  %4 = getelementptr inbounds nuw %struct.lean_object, ptr %3, i32 0, i32 0
  %5 = load i32, ptr %4, align 4, !tbaa !15
  %6 = icmp sgt i32 %5, 1
  %7 = zext i1 %6 to i32
  %8 = sext i32 %7 to i64
  %9 = call i64 @llvm.expect.i64(i64 %8, i64 1)
  %10 = icmp ne i64 %9, 0
  br i1 %10, label %11, label %16

11:                                               ; preds = %1
  %12 = load ptr, ptr %2, align 8, !tbaa !4
  %13 = getelementptr inbounds nuw %struct.lean_object, ptr %12, i32 0, i32 0
  %14 = load i32, ptr %13, align 4, !tbaa !15
  %15 = add i32 %14, -1
  store i32 %15, ptr %13, align 4, !tbaa !15
  br label %24

16:                                               ; preds = %1
  %17 = load ptr, ptr %2, align 8, !tbaa !4
  %18 = getelementptr inbounds nuw %struct.lean_object, ptr %17, i32 0, i32 0
  %19 = load i32, ptr %18, align 4, !tbaa !15
  %20 = icmp ne i32 %19, 0
  br i1 %20, label %21, label %23

21:                                               ; preds = %16
  %22 = load ptr, ptr %2, align 8, !tbaa !4
  call void @lean_dec_ref_cold(ptr noundef %22)
  br label %23

23:                                               ; preds = %21, %16
  br label %24

24:                                               ; preds = %23, %11
  ret void
}

; Function Attrs: alwaysinline nounwind uwtable
define internal zeroext i1 @lean_is_scalar(ptr noundef %0) #1 {
  %2 = alloca ptr, align 8
  store ptr %0, ptr %2, align 8, !tbaa !4
  %3 = load ptr, ptr %2, align 8, !tbaa !4
  %4 = ptrtoint ptr %3 to i64
  %5 = and i64 %4, 1
  %6 = icmp eq i64 %5, 1
  ret i1 %6
}

; Function Attrs: alwaysinline nounwind uwtable
define internal void @lean_dec(ptr noundef %0) #1 {
  %2 = alloca ptr, align 8
  store ptr %0, ptr %2, align 8, !tbaa !4
  %3 = load ptr, ptr %2, align 8, !tbaa !4
  %4 = call zeroext i1 @lean_is_scalar(ptr noundef %3)
  br i1 %4, label %7, label %5

5:                                                ; preds = %1
  %6 = load ptr, ptr %2, align 8, !tbaa !4
  call void @lean_dec_ref(ptr noundef %6)
  br label %7

7:                                                ; preds = %5, %1
  ret void
}

; Function Attrs: inlinehint nounwind uwtable
define internal i64 @lean_unbox(ptr noundef %0) #0 {
  %2 = alloca ptr, align 8
  store ptr %0, ptr %2, align 8, !tbaa !4
  %3 = load ptr, ptr %2, align 8, !tbaa !4
  %4 = ptrtoint ptr %3 to i64
  %5 = lshr i64 %4, 1
  ret i64 %5
}

; Function Attrs: nounwind uwtable
define ptr @l_Lean_Elab_Tactic_Simpa_evalSimpa___lambda__6___boxed(ptr noundef %0) #2 {
  %2 = alloca ptr, align 8
  %3 = alloca ptr, align 8
  %4 = alloca ptr, align 8
  %5 = alloca ptr, align 8
  %6 = alloca ptr, align 8
  %7 = alloca ptr, align 8
  %8 = alloca ptr, align 8
  %9 = alloca ptr, align 8
  %10 = alloca ptr, align 8
  %11 = alloca ptr, align 8
  %12 = alloca ptr, align 8
  %13 = alloca ptr, align 8
  %14 = alloca ptr, align 8
  %15 = alloca ptr, align 8
  %16 = alloca ptr, align 8
  %17 = alloca ptr, align 8
  %18 = alloca ptr, align 8
  %19 = alloca ptr, align 8
  %20 = alloca ptr, align 8
  %21 = alloca i8, align 1
  %22 = alloca ptr, align 8
  store ptr %0, ptr %2, align 8, !tbaa !10
  call void @llvm.lifetime.start.p0(i64 8, ptr %3) #8
  %23 = load ptr, ptr %2, align 8, !tbaa !10
  %24 = getelementptr inbounds ptr, ptr %23, i64 0
  %25 = load ptr, ptr %24, align 8, !tbaa !4
  store ptr %25, ptr %3, align 8, !tbaa !4
  call void @llvm.lifetime.start.p0(i64 8, ptr %4) #8
  %26 = load ptr, ptr %2, align 8, !tbaa !10
  %27 = getelementptr inbounds ptr, ptr %26, i64 1
  %28 = load ptr, ptr %27, align 8, !tbaa !4
  store ptr %28, ptr %4, align 8, !tbaa !4
  call void @llvm.lifetime.start.p0(i64 8, ptr %5) #8
  %29 = load ptr, ptr %2, align 8, !tbaa !10
  %30 = getelementptr inbounds ptr, ptr %29, i64 2
  %31 = load ptr, ptr %30, align 8, !tbaa !4
  store ptr %31, ptr %5, align 8, !tbaa !4
  call void @llvm.lifetime.start.p0(i64 8, ptr %6) #8
  %32 = load ptr, ptr %2, align 8, !tbaa !10
  %33 = getelementptr inbounds ptr, ptr %32, i64 3
  %34 = load ptr, ptr %33, align 8, !tbaa !4
  store ptr %34, ptr %6, align 8, !tbaa !4
  call void @llvm.lifetime.start.p0(i64 8, ptr %7) #8
  %35 = load ptr, ptr %2, align 8, !tbaa !10
  %36 = getelementptr inbounds ptr, ptr %35, i64 4
  %37 = load ptr, ptr %36, align 8, !tbaa !4
  store ptr %37, ptr %7, align 8, !tbaa !4
  call void @llvm.lifetime.start.p0(i64 8, ptr %8) #8
  %38 = load ptr, ptr %2, align 8, !tbaa !10
  %39 = getelementptr inbounds ptr, ptr %38, i64 5
  %40 = load ptr, ptr %39, align 8, !tbaa !4
  store ptr %40, ptr %8, align 8, !tbaa !4
  call void @llvm.lifetime.start.p0(i64 8, ptr %9) #8
  %41 = load ptr, ptr %2, align 8, !tbaa !10
  %42 = getelementptr inbounds ptr, ptr %41, i64 6
  %43 = load ptr, ptr %42, align 8, !tbaa !4
  store ptr %43, ptr %9, align 8, !tbaa !4
  call void @llvm.lifetime.start.p0(i64 8, ptr %10) #8
  %44 = load ptr, ptr %2, align 8, !tbaa !10
  %45 = getelementptr inbounds ptr, ptr %44, i64 7
  %46 = load ptr, ptr %45, align 8, !tbaa !4
  store ptr %46, ptr %10, align 8, !tbaa !4
  call void @llvm.lifetime.start.p0(i64 8, ptr %11) #8
  %47 = load ptr, ptr %2, align 8, !tbaa !10
  %48 = getelementptr inbounds ptr, ptr %47, i64 8
  %49 = load ptr, ptr %48, align 8, !tbaa !4
  store ptr %49, ptr %11, align 8, !tbaa !4
  call void @llvm.lifetime.start.p0(i64 8, ptr %12) #8
  %50 = load ptr, ptr %2, align 8, !tbaa !10
  %51 = getelementptr inbounds ptr, ptr %50, i64 9
  %52 = load ptr, ptr %51, align 8, !tbaa !4
  store ptr %52, ptr %12, align 8, !tbaa !4
  call void @llvm.lifetime.start.p0(i64 8, ptr %13) #8
  %53 = load ptr, ptr %2, align 8, !tbaa !10
  %54 = getelementptr inbounds ptr, ptr %53, i64 10
  %55 = load ptr, ptr %54, align 8, !tbaa !4
  store ptr %55, ptr %13, align 8, !tbaa !4
  call void @llvm.lifetime.start.p0(i64 8, ptr %14) #8
  %56 = load ptr, ptr %2, align 8, !tbaa !10
  %57 = getelementptr inbounds ptr, ptr %56, i64 11
  %58 = load ptr, ptr %57, align 8, !tbaa !4
  store ptr %58, ptr %14, align 8, !tbaa !4
  call void @llvm.lifetime.start.p0(i64 8, ptr %15) #8
  %59 = load ptr, ptr %2, align 8, !tbaa !10
  %60 = getelementptr inbounds ptr, ptr %59, i64 12
  %61 = load ptr, ptr %60, align 8, !tbaa !4
  store ptr %61, ptr %15, align 8, !tbaa !4
  call void @llvm.lifetime.start.p0(i64 8, ptr %16) #8
  %62 = load ptr, ptr %2, align 8, !tbaa !10
  %63 = getelementptr inbounds ptr, ptr %62, i64 13
  %64 = load ptr, ptr %63, align 8, !tbaa !4
  store ptr %64, ptr %16, align 8, !tbaa !4
  call void @llvm.lifetime.start.p0(i64 8, ptr %17) #8
  %65 = load ptr, ptr %2, align 8, !tbaa !10
  %66 = getelementptr inbounds ptr, ptr %65, i64 14
  %67 = load ptr, ptr %66, align 8, !tbaa !4
  store ptr %67, ptr %17, align 8, !tbaa !4
  call void @llvm.lifetime.start.p0(i64 8, ptr %18) #8
  %68 = load ptr, ptr %2, align 8, !tbaa !10
  %69 = getelementptr inbounds ptr, ptr %68, i64 15
  %70 = load ptr, ptr %69, align 8, !tbaa !4
  store ptr %70, ptr %18, align 8, !tbaa !4
  call void @llvm.lifetime.start.p0(i64 8, ptr %19) #8
  %71 = load ptr, ptr %2, align 8, !tbaa !10
  %72 = getelementptr inbounds ptr, ptr %71, i64 16
  %73 = load ptr, ptr %72, align 8, !tbaa !4
  store ptr %73, ptr %19, align 8, !tbaa !4
  call void @llvm.lifetime.start.p0(i64 8, ptr %20) #8
  %74 = load ptr, ptr %2, align 8, !tbaa !10
  %75 = getelementptr inbounds ptr, ptr %74, i64 17
  %76 = load ptr, ptr %75, align 8, !tbaa !4
  store ptr %76, ptr %20, align 8, !tbaa !4
  br label %77

77:                                               ; preds = %1
  call void @llvm.lifetime.start.p0(i64 1, ptr %21) #8
  call void @llvm.lifetime.start.p0(i64 8, ptr %22) #8
  %78 = load ptr, ptr %8, align 8, !tbaa !4
  %79 = call i64 @lean_unbox(ptr noundef %78)
  %80 = trunc i64 %79 to i8
  store i8 %80, ptr %21, align 1, !tbaa !12
  %81 = load ptr, ptr %8, align 8, !tbaa !4
  call void @lean_dec(ptr noundef %81)
  %82 = load ptr, ptr %3, align 8, !tbaa !4
  %83 = load ptr, ptr %4, align 8, !tbaa !4
  %84 = load ptr, ptr %5, align 8, !tbaa !4
  %85 = load ptr, ptr %6, align 8, !tbaa !4
  %86 = load ptr, ptr %7, align 8, !tbaa !4
  %87 = load i8, ptr %21, align 1, !tbaa !12
  %88 = load ptr, ptr %9, align 8, !tbaa !4
  %89 = load ptr, ptr %10, align 8, !tbaa !4
  %90 = load ptr, ptr %11, align 8, !tbaa !4
  %91 = load ptr, ptr %12, align 8, !tbaa !4
  %92 = load ptr, ptr %13, align 8, !tbaa !4
  %93 = load ptr, ptr %14, align 8, !tbaa !4
  %94 = load ptr, ptr %15, align 8, !tbaa !4
  %95 = load ptr, ptr %16, align 8, !tbaa !4
  %96 = load ptr, ptr %17, align 8, !tbaa !4
  %97 = load ptr, ptr %18, align 8, !tbaa !4
  %98 = load ptr, ptr %19, align 8, !tbaa !4
  %99 = load ptr, ptr %20, align 8, !tbaa !4
  %100 = call ptr @l_Lean_Elab_Tactic_Simpa_evalSimpa___lambda__6(ptr noundef %82, ptr noundef %83, ptr noundef %84, ptr noundef %85, ptr noundef %86, i8 noundef zeroext %87, ptr noundef %88, ptr noundef %89, ptr noundef %90, ptr noundef %91, ptr noundef %92, ptr noundef %93, ptr noundef %94, ptr noundef %95, ptr noundef %96, ptr noundef %97, ptr noundef %98, ptr noundef %99)
  store ptr %100, ptr %22, align 8, !tbaa !4
  %101 = load ptr, ptr %10, align 8, !tbaa !4
  call void @lean_dec(ptr noundef %101)
  %102 = load ptr, ptr %5, align 8, !tbaa !4
  call void @lean_dec(ptr noundef %102)
  %103 = load ptr, ptr %22, align 8, !tbaa !4
  call void @llvm.lifetime.end.p0(i64 8, ptr %22) #8
  call void @llvm.lifetime.end.p0(i64 1, ptr %21) #8
  call void @llvm.lifetime.end.p0(i64 8, ptr %20) #8
  call void @llvm.lifetime.end.p0(i64 8, ptr %19) #8
  call void @llvm.lifetime.end.p0(i64 8, ptr %18) #8
  call void @llvm.lifetime.end.p0(i64 8, ptr %17) #8
  call void @llvm.lifetime.end.p0(i64 8, ptr %16) #8
  call void @llvm.lifetime.end.p0(i64 8, ptr %15) #8
  call void @llvm.lifetime.end.p0(i64 8, ptr %14) #8
  call void @llvm.lifetime.end.p0(i64 8, ptr %13) #8
  call void @llvm.lifetime.end.p0(i64 8, ptr %12) #8
  call void @llvm.lifetime.end.p0(i64 8, ptr %11) #8
  call void @llvm.lifetime.end.p0(i64 8, ptr %10) #8
  call void @llvm.lifetime.end.p0(i64 8, ptr %9) #8
  call void @llvm.lifetime.end.p0(i64 8, ptr %8) #8
  call void @llvm.lifetime.end.p0(i64 8, ptr %7) #8
  call void @llvm.lifetime.end.p0(i64 8, ptr %6) #8
  call void @llvm.lifetime.end.p0(i64 8, ptr %5) #8
  call void @llvm.lifetime.end.p0(i64 8, ptr %4) #8
  call void @llvm.lifetime.end.p0(i64 8, ptr %3) #8
  ret ptr %103
}