; Function Attrs: nounwind uwtable
define ptr @l_Lean_Elab_Tactic_Simpa_evalSimpa___lambda__6___boxed(ptr noundef readonly captures(none) %0) #1 {
  %2 = load ptr, ptr %0, align 8, !tbaa !4
  %3 = getelementptr inbounds nuw i8, ptr %0, i64 8
  %4 = load ptr, ptr %3, align 8, !tbaa !4
  %5 = getelementptr inbounds nuw i8, ptr %0, i64 16
  %6 = load ptr, ptr %5, align 8, !tbaa !4
  %7 = getelementptr inbounds nuw i8, ptr %0, i64 24
  %8 = load ptr, ptr %7, align 8, !tbaa !4
  %9 = getelementptr inbounds nuw i8, ptr %0, i64 32
  %10 = load ptr, ptr %9, align 8, !tbaa !4
  %11 = getelementptr inbounds nuw i8, ptr %0, i64 40
  %12 = load ptr, ptr %11, align 8, !tbaa !4
  %13 = getelementptr inbounds nuw i8, ptr %0, i64 48
  %14 = load ptr, ptr %13, align 8, !tbaa !4
  %15 = getelementptr inbounds nuw i8, ptr %0, i64 56
  %16 = load ptr, ptr %15, align 8, !tbaa !4
  %17 = getelementptr inbounds nuw i8, ptr %0, i64 64
  %18 = load ptr, ptr %17, align 8, !tbaa !4
  %19 = getelementptr inbounds nuw i8, ptr %0, i64 72
  %20 = load ptr, ptr %19, align 8, !tbaa !4
  %21 = getelementptr inbounds nuw i8, ptr %0, i64 80
  %22 = load ptr, ptr %21, align 8, !tbaa !4
  %23 = getelementptr inbounds nuw i8, ptr %0, i64 88
  %24 = load ptr, ptr %23, align 8, !tbaa !4
  %25 = getelementptr inbounds nuw i8, ptr %0, i64 96
  %26 = load ptr, ptr %25, align 8, !tbaa !4
  %27 = getelementptr inbounds nuw i8, ptr %0, i64 104
  %28 = load ptr, ptr %27, align 8, !tbaa !4
  %29 = getelementptr inbounds nuw i8, ptr %0, i64 112
  %30 = load ptr, ptr %29, align 8, !tbaa !4
  %31 = getelementptr inbounds nuw i8, ptr %0, i64 120
  %32 = load ptr, ptr %31, align 8, !tbaa !4
  %33 = getelementptr inbounds nuw i8, ptr %0, i64 128
  %34 = load ptr, ptr %33, align 8, !tbaa !4
  %35 = getelementptr inbounds nuw i8, ptr %0, i64 136
  %36 = load ptr, ptr %35, align 8, !tbaa !4
  %37 = ptrtoint ptr %12 to i64
  %38 = lshr i64 %37, 1
  %39 = trunc i64 %38 to i8
  %40 = and i64 %37, 1
  %.not = icmp eq i64 %40, 0
  br i1 %.not, label %41, label %lean_dec.exit41

41:                                               ; preds = %1
  %42 = load i32, ptr %12, align 4, !tbaa !8
  %43 = icmp sgt i32 %42, 1
  br i1 %43, label %44, label %46, !prof !11

44:                                               ; preds = %41
  %45 = add nsw i32 %42, -1
  store i32 %45, ptr %12, align 4, !tbaa !8
  br label %lean_dec.exit41

46:                                               ; preds = %41
  %.not.i = icmp eq i32 %42, 0
  br i1 %.not.i, label %lean_dec.exit41, label %47

47:                                               ; preds = %46
  tail call void @lean_dec_ref_cold(ptr noundef nonnull %12) #5
  br label %lean_dec.exit41

lean_dec.exit41:                                  ; preds = %47, %46, %44, %1
  %48 = tail call ptr @l_Lean_Elab_Tactic_Simpa_evalSimpa___lambda__6(ptr noundef %2, ptr noundef %4, ptr noundef %6, ptr noundef %8, ptr noundef %10, i8 noundef zeroext %39, ptr noundef %14, ptr noundef %16, ptr noundef %18, ptr noundef %20, ptr noundef %22, ptr noundef %24, ptr noundef %26, ptr noundef %28, ptr noundef %30, ptr noundef %32, ptr noundef %34, ptr noundef %36)
  %49 = ptrtoint ptr %16 to i64
  %50 = and i64 %49, 1
  %.not46 = icmp eq i64 %50, 0
  br i1 %.not46, label %51, label %lean_dec.exit40

51:                                               ; preds = %lean_dec.exit41
  %52 = load i32, ptr %16, align 4, !tbaa !8
  %53 = icmp sgt i32 %52, 1
  br i1 %53, label %54, label %56, !prof !11

54:                                               ; preds = %51
  %55 = add nsw i32 %52, -1
  store i32 %55, ptr %16, align 4, !tbaa !8
  br label %lean_dec.exit40

56:                                               ; preds = %51
  %.not.i42 = icmp eq i32 %52, 0
  br i1 %.not.i42, label %lean_dec.exit40, label %57

57:                                               ; preds = %56
  tail call void @lean_dec_ref_cold(ptr noundef nonnull %16) #5
  br label %lean_dec.exit40

lean_dec.exit40:                                  ; preds = %57, %56, %54, %lean_dec.exit41
  %58 = ptrtoint ptr %6 to i64
  %59 = and i64 %58, 1
  %.not47 = icmp eq i64 %59, 0
  br i1 %.not47, label %60, label %lean_dec.exit

60:                                               ; preds = %lean_dec.exit40
  %61 = load i32, ptr %6, align 4, !tbaa !8
  %62 = icmp sgt i32 %61, 1
  br i1 %62, label %63, label %65, !prof !11

63:                                               ; preds = %60
  %64 = add nsw i32 %61, -1
  store i32 %64, ptr %6, align 4, !tbaa !8
  br label %lean_dec.exit

65:                                               ; preds = %60
  %.not.i44 = icmp eq i32 %61, 0
  br i1 %.not.i44, label %lean_dec.exit, label %66

66:                                               ; preds = %65
  tail call void @lean_dec_ref_cold(ptr noundef nonnull %6) #5
  br label %lean_dec.exit

lean_dec.exit:                                    ; preds = %66, %65, %63, %lean_dec.exit40
  ret ptr %48
}